; Function Attrs: mustprogress nofree norecurse nosync nounwind willreturn memory(argmem: write) uwtable
define dso_local void @ossl_quic_vlint_encode_n(ptr noundef writeonly captures(none) initializes((0, 1)) %0, i64 noundef %1, i32 noundef %2) local_unnamed_addr #0 {
  switch i32 %2, label %26 [
    i32 1, label %4
    i32 2, label %6
    i32 4, label %13
  ]

4:                                                ; preds = %3
  %5 = trunc i64 %1 to i8
  store i8 %5, ptr %0, align 1, !tbaa !4
  br label %50

6:                                                ; preds = %3
  %7 = lshr i64 %1, 8
  %8 = trunc i64 %7 to i8
  %9 = and i8 %8, 63
  %10 = or disjoint i8 %9, 64
  store i8 %10, ptr %0, align 1, !tbaa !4
  %11 = trunc i64 %1 to i8
  %12 = getelementptr inbounds nuw i8, ptr %0, i64 1
  store i8 %11, ptr %12, align 1, !tbaa !4
  br label %50

13:                                               ; preds = %3
  %14 = lshr i64 %1, 24
  %15 = trunc i64 %14 to i8
  %16 = and i8 %15, 63
  %17 = or disjoint i8 %16, -128
  store i8 %17, ptr %0, align 1, !tbaa !4
  %18 = lshr i64 %1, 16
  %19 = trunc i64 %18 to i8
  %20 = getelementptr inbounds nuw i8, ptr %0, i64 1
  store i8 %19, ptr %20, align 1, !tbaa !4
  %21 = lshr i64 %1, 8
  %22 = trunc i64 %21 to i8
  %23 = getelementptr inbounds nuw i8, ptr %0, i64 2
  store i8 %22, ptr %23, align 1, !tbaa !4
  %24 = trunc i64 %1 to i8
  %25 = getelementptr inbounds nuw i8, ptr %0, i64 3
  store i8 %24, ptr %25, align 1, !tbaa !4
  br label %50

26:                                               ; preds = %3
  %27 = lshr i64 %1, 56
  %28 = trunc nuw i64 %27 to i8
  %29 = or i8 %28, -64
  store i8 %29, ptr %0, align 1, !tbaa !4
  %30 = lshr i64 %1, 48
  %31 = trunc i64 %30 to i8
  %32 = getelementptr inbounds nuw i8, ptr %0, i64 1
  store i8 %31, ptr %32, align 1, !tbaa !4
  %33 = lshr i64 %1, 40
  %34 = trunc i64 %33 to i8
  %35 = getelementptr inbounds nuw i8, ptr %0, i64 2
  store i8 %34, ptr %35, align 1, !tbaa !4
  %36 = lshr i64 %1, 32
  %37 = trunc i64 %36 to i8
  %38 = getelementptr inbounds nuw i8, ptr %0, i64 3
  store i8 %37, ptr %38, align 1, !tbaa !4
  %39 = lshr i64 %1, 24
  %40 = trunc i64 %39 to i8
  %41 = getelementptr inbounds nuw i8, ptr %0, i64 4
  store i8 %40, ptr %41, align 1, !tbaa !4
  %42 = lshr i64 %1, 16
  %43 = trunc i64 %42 to i8
  %44 = getelementptr inbounds nuw i8, ptr %0, i64 5
  store i8 %43, ptr %44, align 1, !tbaa !4
  %45 = lshr i64 %1, 8
  %46 = trunc i64 %45 to i8
  %47 = getelementptr inbounds nuw i8, ptr %0, i64 6
  store i8 %46, ptr %47, align 1, !tbaa !4
  %48 = trunc i64 %1 to i8
  %49 = getelementptr inbounds nuw i8, ptr %0, i64 7
  store i8 %48, ptr %49, align 1, !tbaa !4
  br label %50

50:                                               ; preds = %6, %26, %13, %4
  ret void
}